target datalayout = "e-m:e-p270:32:32-p271:32:32-p272:64:64-i64:64-i128:128-f80:128-n8:16:32:64-S128"
target triple = "x86_64-pc-linux-gnu"

%struct.PlanState = type { i32, ptr, ptr, ptr, ptr, ptr, ptr, ptr, ptr, ptr, ptr, ptr, ptr, ptr, ptr, ptr, ptr, ptr, i8, ptr, ptr, ptr, ptr, ptr, i8, i8, i8, i8, i8, i8, i8, i8 }
%struct.BitmapHeapScanState = type { %struct.ScanState, ptr, ptr, i32, %struct.BitmapHeapScanInstrumentation, %struct.TBMIterator, i32, i32, i32, i8, ptr, ptr, i8, i32, i32 }
%struct.ScanState = type { %struct.PlanState, ptr, ptr, ptr }
%struct.BitmapHeapScanInstrumentation = type { i64, i64 }
%struct.TBMIterator = type { i8, %union.anon }
%union.anon = type { ptr }
%struct.RelationData = type { %struct.RelFileLocator, ptr, i32, i32, i8, i8, i8, i8, i8, i32, i32, i32, i32, ptr, ptr, i32, %struct.LockInfoData, ptr, ptr, ptr, ptr, ptr, i8, ptr, ptr, ptr, ptr, ptr, ptr, i32, ptr, i8, ptr, ptr, i32, i8, i32, ptr, i8, ptr, ptr, ptr, ptr, ptr, ptr, ptr, i32, ptr, ptr, ptr, ptr, ptr, ptr, ptr, ptr, ptr, ptr, ptr, ptr, ptr, ptr, ptr, ptr, ptr, ptr, ptr, i32, i8, ptr }
%struct.RelFileLocator = type { i32, i32, i32 }
%struct.LockInfoData = type { %struct.LockRelId }
%struct.LockRelId = type { i32, i32 }
%struct.BitmapHeapScan = type { %struct.Scan, ptr }
%struct.Scan = type { %struct.Plan, i32 }
%struct.Plan = type { i32, i32, double, double, double, i32, i8, i8, i8, i32, ptr, ptr, ptr, ptr, ptr, ptr, ptr }
%struct.FormData_pg_class = type { i32, %struct.nameData, i32, i32, i32, i32, i32, i32, i32, i32, float, i32, i32, i8, i8, i8, i8, i16, i16, i8, i8, i8, i8, i8, i8, i8, i8, i32, i32, i32 }
%struct.nameData = type { [64 x i8] }
%struct.Node = type { i32 }

; Function Attrs: inlinehint nounwind uwtable
define internal ptr @newNode(i64 noundef %0, i32 noundef %1) #2 {
  %3 = alloca i64, align 8
  %4 = alloca i32, align 4
  %5 = alloca ptr, align 8
  store i64 %0, ptr %3, align 8
  store i32 %1, ptr %4, align 4
  call void @llvm.lifetime.start.p0(i64 8, ptr %5) #8
  %6 = load i64, ptr %3, align 8
  %7 = call ptr @palloc0(i64 noundef %6)
  store ptr %7, ptr %5, align 8
  %8 = load i32, ptr %4, align 4
  %9 = load ptr, ptr %5, align 8
  %10 = getelementptr inbounds nuw %struct.Node, ptr %9, i32 0, i32 0
  store i32 %8, ptr %10, align 4
  %11 = load ptr, ptr %5, align 8
  call void @llvm.lifetime.end.p0(i64 8, ptr %5) #8
  ret ptr %11
}

; Function Attrs: nounwind uwtable
define dso_local ptr @ExecInitBitmapHeapScan(ptr noundef %0, ptr noundef %1, i32 noundef %2) #0 {
  %4 = alloca ptr, align 8
  %5 = alloca ptr, align 8
  %6 = alloca i32, align 4
  %7 = alloca ptr, align 8
  %8 = alloca ptr, align 8
  store ptr %0, ptr %4, align 8
  store ptr %1, ptr %5, align 8
  store i32 %2, ptr %6, align 4
  call void @llvm.lifetime.start.p0(i64 8, ptr %7) #8
  call void @llvm.lifetime.start.p0(i64 8, ptr %8) #8
  %9 = call ptr @newNode(i64 noundef 328, i32 noundef 407)
  store ptr %9, ptr %7, align 8
  %10 = load ptr, ptr %4, align 8
  %11 = load ptr, ptr %7, align 8
  %12 = getelementptr inbounds nuw %struct.BitmapHeapScanState, ptr %11, i32 0, i32 0
  %13 = getelementptr inbounds nuw %struct.ScanState, ptr %12, i32 0, i32 0
  %14 = getelementptr inbounds nuw %struct.PlanState, ptr %13, i32 0, i32 1
  store ptr %10, ptr %14, align 8
  %15 = load ptr, ptr %5, align 8
  %16 = load ptr, ptr %7, align 8
  %17 = getelementptr inbounds nuw %struct.BitmapHeapScanState, ptr %16, i32 0, i32 0
  %18 = getelementptr inbounds nuw %struct.ScanState, ptr %17, i32 0, i32 0
  %19 = getelementptr inbounds nuw %struct.PlanState, ptr %18, i32 0, i32 2
  store ptr %15, ptr %19, align 8
  %20 = load ptr, ptr %7, align 8
  %21 = getelementptr inbounds nuw %struct.BitmapHeapScanState, ptr %20, i32 0, i32 0
  %22 = getelementptr inbounds nuw %struct.ScanState, ptr %21, i32 0, i32 0
  %23 = getelementptr inbounds nuw %struct.PlanState, ptr %22, i32 0, i32 3
  store ptr @ExecBitmapHeapScan, ptr %23, align 8
  %24 = load ptr, ptr %7, align 8
  %25 = getelementptr inbounds nuw %struct.BitmapHeapScanState, ptr %24, i32 0, i32 2
  store ptr null, ptr %25, align 8
  %26 = load ptr, ptr %7, align 8
  %27 = getelementptr inbounds nuw %struct.BitmapHeapScanState, ptr %26, i32 0, i32 3
  store i32 0, ptr %27, align 8
  %28 = load ptr, ptr %7, align 8
  %29 = getelementptr inbounds nuw %struct.BitmapHeapScanState, ptr %28, i32 0, i32 4
  call void @llvm.memset.p0.i64(ptr align 8 %29, i8 0, i64 16, i1 false)
  %30 = load ptr, ptr %7, align 8
  %31 = getelementptr inbounds nuw %struct.BitmapHeapScanState, ptr %30, i32 0, i32 6
  store i32 0, ptr %31, align 8
  %32 = load ptr, ptr %7, align 8
  %33 = getelementptr inbounds nuw %struct.BitmapHeapScanState, ptr %32, i32 0, i32 7
  store i32 -1, ptr %33, align 4
  %34 = load ptr, ptr %7, align 8
  %35 = getelementptr inbounds nuw %struct.BitmapHeapScanState, ptr %34, i32 0, i32 9
  store i8 0, ptr %35, align 4
  %36 = load ptr, ptr %7, align 8
  %37 = getelementptr inbounds nuw %struct.BitmapHeapScanState, ptr %36, i32 0, i32 10
  store ptr null, ptr %37, align 8
  %38 = load ptr, ptr %7, align 8
  %39 = getelementptr inbounds nuw %struct.BitmapHeapScanState, ptr %38, i32 0, i32 12
  store i8 1, ptr %39, align 8
  %40 = load ptr, ptr %7, align 8
  %41 = getelementptr inbounds nuw %struct.BitmapHeapScanState, ptr %40, i32 0, i32 13
  store i32 -1, ptr %41, align 4
  %42 = load ptr, ptr %7, align 8
  %43 = getelementptr inbounds nuw %struct.BitmapHeapScanState, ptr %42, i32 0, i32 14
  store i32 -1, ptr %43, align 8
  %44 = load ptr, ptr %5, align 8
  %45 = load ptr, ptr %7, align 8
  %46 = getelementptr inbounds nuw %struct.BitmapHeapScanState, ptr %45, i32 0, i32 0
  %47 = getelementptr inbounds nuw %struct.ScanState, ptr %46, i32 0, i32 0
  call void @ExecAssignExprContext(ptr noundef %44, ptr noundef %47)
  %48 = load ptr, ptr %5, align 8
  %49 = load ptr, ptr %4, align 8
  %50 = getelementptr inbounds nuw %struct.BitmapHeapScan, ptr %49, i32 0, i32 0
  %51 = getelementptr inbounds nuw %struct.Scan, ptr %50, i32 0, i32 1
  %52 = load i32, ptr %51, align 8
  %53 = load i32, ptr %6, align 4
  %54 = call ptr @ExecOpenScanRelation(ptr noundef %48, i32 noundef %52, i32 noundef %53)
  store ptr %54, ptr %8, align 8
  %55 = load ptr, ptr %4, align 8
  %56 = getelementptr inbounds nuw %struct.Plan, ptr %55, i32 0, i32 12
  %57 = load ptr, ptr %56, align 8
  %58 = load ptr, ptr %5, align 8
  %59 = load i32, ptr %6, align 4
  %60 = call ptr @ExecInitNode(ptr noundef %57, ptr noundef %58, i32 noundef %59)
  %61 = load ptr, ptr %7, align 8
  %62 = getelementptr inbounds nuw %struct.PlanState, ptr %61, i32 0, i32 9
  store ptr %60, ptr %62, align 8
  %63 = load ptr, ptr %5, align 8
  %64 = load ptr, ptr %7, align 8
  %65 = getelementptr inbounds nuw %struct.BitmapHeapScanState, ptr %64, i32 0, i32 0
  %66 = load ptr, ptr %8, align 8
  %67 = getelementptr inbounds nuw %struct.RelationData, ptr %66, i32 0, i32 14
  %68 = load ptr, ptr %67, align 8
  %69 = load ptr, ptr %8, align 8
  %70 = call ptr @table_slot_callbacks(ptr noundef %69)
  call void @ExecInitScanTupleSlot(ptr noundef %63, ptr noundef %65, ptr noundef %68, ptr noundef %70)
  %71 = load ptr, ptr %7, align 8
  %72 = getelementptr inbounds nuw %struct.BitmapHeapScanState, ptr %71, i32 0, i32 0
  %73 = getelementptr inbounds nuw %struct.ScanState, ptr %72, i32 0, i32 0
  call void @ExecInitResultTypeTL(ptr noundef %73)
  %74 = load ptr, ptr %7, align 8
  %75 = getelementptr inbounds nuw %struct.BitmapHeapScanState, ptr %74, i32 0, i32 0
  call void @ExecAssignScanProjectionInfo(ptr noundef %75)
  %76 = load ptr, ptr %4, align 8
  %77 = getelementptr inbounds nuw %struct.BitmapHeapScan, ptr %76, i32 0, i32 0
  %78 = getelementptr inbounds nuw %struct.Scan, ptr %77, i32 0, i32 0
  %79 = getelementptr inbounds nuw %struct.Plan, ptr %78, i32 0, i32 11
  %80 = load ptr, ptr %79, align 8
  %81 = load ptr, ptr %7, align 8
  %82 = call ptr @ExecInitQual(ptr noundef %80, ptr noundef %81)
  %83 = load ptr, ptr %7, align 8
  %84 = getelementptr inbounds nuw %struct.BitmapHeapScanState, ptr %83, i32 0, i32 0
  %85 = getelementptr inbounds nuw %struct.ScanState, ptr %84, i32 0, i32 0
  %86 = getelementptr inbounds nuw %struct.PlanState, ptr %85, i32 0, i32 8
  store ptr %82, ptr %86, align 8
  %87 = load ptr, ptr %4, align 8
  %88 = getelementptr inbounds nuw %struct.BitmapHeapScan, ptr %87, i32 0, i32 1
  %89 = load ptr, ptr %88, align 8
  %90 = load ptr, ptr %7, align 8
  %91 = call ptr @ExecInitQual(ptr noundef %89, ptr noundef %90)
  %92 = load ptr, ptr %7, align 8
  %93 = getelementptr inbounds nuw %struct.BitmapHeapScanState, ptr %92, i32 0, i32 1
  store ptr %91, ptr %93, align 8
  %94 = load ptr, ptr %8, align 8
  %95 = getelementptr inbounds nuw %struct.RelationData, ptr %94, i32 0, i32 13
  %96 = load ptr, ptr %95, align 8
  %97 = getelementptr inbounds nuw %struct.FormData_pg_class, ptr %96, i32 0, i32 8
  %98 = load i32, ptr %97, align 4
  %99 = call i32 @get_tablespace_io_concurrency(i32 noundef %98)
  %100 = load ptr, ptr %7, align 8
  %101 = getelementptr inbounds nuw %struct.BitmapHeapScanState, ptr %100, i32 0, i32 8
  store i32 %99, ptr %101, align 8
  %102 = load ptr, ptr %8, align 8
  %103 = load ptr, ptr %7, align 8
  %104 = getelementptr inbounds nuw %struct.BitmapHeapScanState, ptr %103, i32 0, i32 0
  %105 = getelementptr inbounds nuw %struct.ScanState, ptr %104, i32 0, i32 1
  store ptr %102, ptr %105, align 8
  %106 = load ptr, ptr %7, align 8
  call void @llvm.lifetime.end.p0(i64 8, ptr %8) #8
  call void @llvm.lifetime.end.p0(i64 8, ptr %7) #8
  ret ptr %106
}