; Function Attrs: nounwind uwtable
define dso_local noundef ptr @ExecInitBitmapHeapScan(ptr noundef %0, ptr noundef %1, i32 noundef %2) local_unnamed_addr #0 {
  %4 = tail call noundef ptr @palloc0(i64 noundef 328) #7
  store i32 407, ptr %4, align 4
  %5 = getelementptr inbounds nuw i8, ptr %4, i64 8
  store ptr %0, ptr %5, align 8
  %6 = getelementptr inbounds nuw i8, ptr %4, i64 16
  store ptr %1, ptr %6, align 8
  %7 = getelementptr inbounds nuw i8, ptr %4, i64 24
  store ptr @ExecBitmapHeapScan, ptr %7, align 8
  %8 = getelementptr inbounds nuw i8, ptr %4, i64 232
  store ptr null, ptr %8, align 8
  %9 = getelementptr inbounds nuw i8, ptr %4, i64 240
  store i32 0, ptr %9, align 8
  %10 = getelementptr inbounds nuw i8, ptr %4, i64 248
  tail call void @llvm.memset.p0.i64(ptr noundef nonnull align 8 dereferenceable(16) %10, i8 0, i64 16, i1 false)
  %11 = getelementptr inbounds nuw i8, ptr %4, i64 280
  store i32 0, ptr %11, align 8
  %12 = getelementptr inbounds nuw i8, ptr %4, i64 284
  store i32 -1, ptr %12, align 4
  %13 = getelementptr inbounds nuw i8, ptr %4, i64 292
  store i8 0, ptr %13, align 4
  %14 = getelementptr inbounds nuw i8, ptr %4, i64 296
  store ptr null, ptr %14, align 8
  %15 = getelementptr inbounds nuw i8, ptr %4, i64 312
  store i8 1, ptr %15, align 8
  %16 = getelementptr inbounds nuw i8, ptr %4, i64 316
  store i32 -1, ptr %16, align 4
  %17 = getelementptr inbounds nuw i8, ptr %4, i64 320
  store i32 -1, ptr %17, align 8
  tail call void @ExecAssignExprContext(ptr noundef %1, ptr noundef %4) #7
  %18 = getelementptr inbounds nuw i8, ptr %0, i64 104
  %19 = load i32, ptr %18, align 8
  %20 = tail call ptr @ExecOpenScanRelation(ptr noundef %1, i32 noundef %19, i32 noundef %2) #7
  %21 = getelementptr inbounds nuw i8, ptr %0, i64 64
  %22 = load ptr, ptr %21, align 8
  %23 = tail call ptr @ExecInitNode(ptr noundef %22, ptr noundef %1, i32 noundef %2) #7
  %24 = getelementptr inbounds nuw i8, ptr %4, i64 72
  store ptr %23, ptr %24, align 8
  %25 = getelementptr inbounds nuw i8, ptr %20, i64 64
  %26 = load ptr, ptr %25, align 8
  %27 = tail call ptr @table_slot_callbacks(ptr noundef %20) #7
  tail call void @ExecInitScanTupleSlot(ptr noundef %1, ptr noundef %4, ptr noundef %26, ptr noundef %27) #7
  tail call void @ExecInitResultTypeTL(ptr noundef %4) #7
  tail call void @ExecAssignScanProjectionInfo(ptr noundef %4) #7
  %28 = getelementptr inbounds nuw i8, ptr %0, i64 56
  %29 = load ptr, ptr %28, align 8
  %30 = tail call ptr @ExecInitQual(ptr noundef %29, ptr noundef %4) #7
  %31 = getelementptr inbounds nuw i8, ptr %4, i64 64
  store ptr %30, ptr %31, align 8
  %32 = getelementptr inbounds nuw i8, ptr %0, i64 112
  %33 = load ptr, ptr %32, align 8
  %34 = tail call ptr @ExecInitQual(ptr noundef %33, ptr noundef %4) #7
  %35 = getelementptr inbounds nuw i8, ptr %4, i64 224
  store ptr %34, ptr %35, align 8
  %36 = getelementptr inbounds nuw i8, ptr %20, i64 56
  %37 = load ptr, ptr %36, align 8
  %38 = getelementptr inbounds nuw i8, ptr %37, i64 92
  %39 = load i32, ptr %38, align 4
  %40 = tail call i32 @get_tablespace_io_concurrency(i32 noundef %39) #7
  %41 = getelementptr inbounds nuw i8, ptr %4, i64 288
  store i32 %40, ptr %41, align 8
  %42 = getelementptr inbounds nuw i8, ptr %4, i64 200
  store ptr %20, ptr %42, align 8
  ret ptr %4
}